target datalayout = "e-m:e-p270:32:32-p271:32:32-p272:64:64-i64:64-i128:128-f80:128-n8:16:32:64-S128"
target triple = "x86_64-pc-linux-gnu"

%"struct.faiss::InvertedLists.base" = type <{ ptr, i64, i64, i8 }>
%"struct.faiss::ReadOnlyInvertedLists.base" = type { %"struct.faiss::InvertedLists.base" }
%"class.std::vector.25" = type { %"struct.std::_Vector_base.26" }
%"struct.std::_Vector_base.26" = type { %"struct.std::_Vector_base<const faiss::InvertedLists *, std::allocator<const faiss::InvertedLists *>>::_Vector_impl" }
%"struct.std::_Vector_base<const faiss::InvertedLists *, std::allocator<const faiss::InvertedLists *>>::_Vector_impl" = type { %"struct.std::_Vector_base<const faiss::InvertedLists *, std::allocator<const faiss::InvertedLists *>>::_Vector_impl_data" }
%"struct.std::_Vector_base<const faiss::InvertedLists *, std::allocator<const faiss::InvertedLists *>>::_Vector_impl_data" = type { ptr, ptr, ptr }
%"class.std::vector" = type { %"struct.std::_Vector_base" }
%"struct.std::_Vector_base" = type { %"struct.std::_Vector_base<long, std::allocator<long>>::_Vector_impl" }
%"struct.std::_Vector_base<long, std::allocator<long>>::_Vector_impl" = type { %"struct.std::_Vector_base<long, std::allocator<long>>::_Vector_impl_data" }
%"struct.std::_Vector_base<long, std::allocator<long>>::_Vector_impl_data" = type { ptr, ptr, ptr }
%"struct.faiss::VStackInvertedLists" = type { %"struct.faiss::ReadOnlyInvertedLists.base", %"class.std::vector.25", %"class.std::vector" }

; Function Attrs: mustprogress nounwind uwtable
define linkonce_odr noundef nonnull align 8 dereferenceable(8) ptr @_ZNKSt6vectorIPKN5faiss13InvertedListsESaIS3_EEixEm(ptr noundef nonnull align 8 dereferenceable(24) %0, i64 noundef %1) #1 comdat align 2 {
  %3 = alloca ptr, align 8
  %4 = alloca i64, align 8
  store ptr %0, ptr %3, align 8, !tbaa !249
  store i64 %1, ptr %4, align 8, !tbaa !11
  %5 = load ptr, ptr %3, align 8
  %6 = getelementptr inbounds nuw %"struct.std::_Vector_base.26", ptr %5, i32 0, i32 0
  %7 = getelementptr inbounds nuw %"struct.std::_Vector_base<const faiss::InvertedLists *, std::allocator<const faiss::InvertedLists *>>::_Vector_impl_data", ptr %6, i32 0, i32 0
  %8 = load ptr, ptr %7, align 8, !tbaa !254
  %9 = load i64, ptr %4, align 8, !tbaa !11
  %10 = getelementptr inbounds nuw ptr, ptr %8, i64 %9
  ret ptr %10
}

; Function Attrs: mustprogress nounwind uwtable
define linkonce_odr noundef nonnull align 8 dereferenceable(8) ptr @_ZNKSt6vectorIlSaIlEEixEm(ptr noundef nonnull align 8 dereferenceable(24) %0, i64 noundef %1) #1 comdat align 2 {
  %3 = alloca ptr, align 8
  %4 = alloca i64, align 8
  store ptr %0, ptr %3, align 8, !tbaa !86
  store i64 %1, ptr %4, align 8, !tbaa !11
  %5 = load ptr, ptr %3, align 8
  %6 = getelementptr inbounds nuw %"struct.std::_Vector_base", ptr %5, i32 0, i32 0
  %7 = getelementptr inbounds nuw %"struct.std::_Vector_base<long, std::allocator<long>>::_Vector_impl_data", ptr %6, i32 0, i32 0
  %8 = load ptr, ptr %7, align 8, !tbaa !90
  %9 = load i64, ptr %4, align 8, !tbaa !11
  %10 = getelementptr inbounds nuw i64, ptr %8, i64 %9
  ret ptr %10
}

; Function Attrs: mustprogress uwtable
define noundef ptr @_ZNK5faiss19VStackInvertedLists7get_idsEm(ptr noundef nonnull align 8 dereferenceable(80) %0, i64 noundef %1) unnamed_addr #2 align 2 {
  %3 = alloca ptr, align 8
  %4 = alloca i64, align 8
  %5 = alloca i32, align 4
  store ptr %0, ptr %3, align 8, !tbaa !49
  store i64 %1, ptr %4, align 8, !tbaa !11
  %6 = load ptr, ptr %3, align 8
  call void @llvm.lifetime.start.p0(i64 4, ptr %5) #6
  %7 = load i64, ptr %4, align 8, !tbaa !11
  %8 = call noundef i32 @_ZN5faiss12_GLOBAL__N_117translate_list_noEPKNS_19VStackInvertedListsEl(ptr noundef %6, i64 noundef %7)
  store i32 %8, ptr %5, align 4, !tbaa !22
  %9 = getelementptr inbounds nuw %"struct.faiss::VStackInvertedLists", ptr %6, i32 0, i32 2
  %10 = load i32, ptr %5, align 4, !tbaa !22
  %11 = sext i32 %10 to i64
  %12 = call noundef nonnull align 8 dereferenceable(8) ptr @_ZNKSt6vectorIlSaIlEEixEm(ptr noundef nonnull align 8 dereferenceable(24) %9, i64 noundef %11) #6
  %13 = load i64, ptr %12, align 8, !tbaa !11
  %14 = load i64, ptr %4, align 8, !tbaa !11
  %15 = sub i64 %14, %13
  store i64 %15, ptr %4, align 8, !tbaa !11
  %16 = getelementptr inbounds nuw %"struct.faiss::VStackInvertedLists", ptr %6, i32 0, i32 1
  %17 = load i32, ptr %5, align 4, !tbaa !22
  %18 = sext i32 %17 to i64
  %19 = call noundef nonnull align 8 dereferenceable(8) ptr @_ZNKSt6vectorIPKN5faiss13InvertedListsESaIS3_EEixEm(ptr noundef nonnull align 8 dereferenceable(24) %16, i64 noundef %18) #6
  %20 = load ptr, ptr %19, align 8, !tbaa !9
  %21 = load i64, ptr %4, align 8, !tbaa !11
  %22 = load ptr, ptr %20, align 8, !tbaa !17
  %23 = getelementptr inbounds ptr, ptr %22, i64 4
  %24 = load ptr, ptr %23, align 8
  %25 = call noundef ptr %24(ptr noundef nonnull align 8 dereferenceable(25) %20, i64 noundef %21)
  call void @llvm.lifetime.end.p0(i64 4, ptr %5) #6
  ret ptr %25
}